target datalayout = "e-m:e-p270:32:32-p271:32:32-p272:64:64-i64:64-i128:128-f80:128-n8:16:32:64-S128"
target triple = "x86_64-pc-linux-gnu"

%struct.reftable_iterator_vtable = type { ptr, ptr, ptr }
%struct.reftable_iterator = type { ptr, ptr }
%struct.reftable_record = type { i8, %union.anon }
%union.anon = type { %struct.reftable_log_record }
%struct.reftable_log_record = type { ptr, i64, i64, i32, %union.anon.1 }
%union.anon.1 = type { %struct.anon.2 }
%struct.anon.2 = type { [32 x i8], [32 x i8], ptr, ptr, i64, i16, ptr, i64 }

; Function Attrs: nounwind uwtable
define dso_local i32 @iterator_next(ptr noundef %0, ptr noundef %1) #0 {
  %3 = alloca ptr, align 8
  %4 = alloca ptr, align 8
  store ptr %0, ptr %3, align 8, !tbaa !4
  store ptr %1, ptr %4, align 8, !tbaa !9
  %5 = load ptr, ptr %3, align 8, !tbaa !4
  %6 = getelementptr inbounds nuw %struct.reftable_iterator, ptr %5, i32 0, i32 0
  %7 = load ptr, ptr %6, align 8, !tbaa !11
  %8 = getelementptr inbounds nuw %struct.reftable_iterator_vtable, ptr %7, i32 0, i32 1
  %9 = load ptr, ptr %8, align 8, !tbaa !17
  %10 = load ptr, ptr %3, align 8, !tbaa !4
  %11 = getelementptr inbounds nuw %struct.reftable_iterator, ptr %10, i32 0, i32 1
  %12 = load ptr, ptr %11, align 8, !tbaa !16
  %13 = load ptr, ptr %4, align 8, !tbaa !9
  %14 = call i32 %9(ptr noundef %12, ptr noundef %13)
  ret i32 %14
}

; Function Attrs: nounwind uwtable
define dso_local i32 @reftable_iterator_next_log(ptr noundef %0, ptr noundef %1) #0 {
  %3 = alloca ptr, align 8
  %4 = alloca ptr, align 8
  %5 = alloca %struct.reftable_record, align 8
  %6 = alloca i32, align 4
  store ptr %0, ptr %3, align 8, !tbaa !4
  store ptr %1, ptr %4, align 8, !tbaa !65
  call void @llvm.lifetime.start.p0(i64 152, ptr %5) #7
  %7 = getelementptr inbounds nuw %struct.reftable_record, ptr %5, i32 0, i32 0
  store i8 103, ptr %7, align 8, !tbaa !54
  %8 = getelementptr i8, ptr %5, i64 1
  call void @llvm.memset.p0.i64(ptr align 1 %8, i8 0, i64 7, i1 false)
  %9 = getelementptr inbounds nuw %struct.reftable_record, ptr %5, i32 0, i32 1
  %10 = load ptr, ptr %4, align 8, !tbaa !65
  call void @llvm.memcpy.p0.p0.i64(ptr align 8 %9, ptr align 8 %10, i64 144, i1 false), !tbaa.struct !67
  call void @llvm.lifetime.start.p0(i64 4, ptr %6) #7
  %11 = load ptr, ptr %3, align 8, !tbaa !4
  %12 = call i32 @iterator_next(ptr noundef %11, ptr noundef %5)
  store i32 %12, ptr %6, align 4, !tbaa !26
  %13 = load ptr, ptr %4, align 8, !tbaa !65
  %14 = getelementptr inbounds nuw %struct.reftable_record, ptr %5, i32 0, i32 1
  call void @llvm.memcpy.p0.p0.i64(ptr align 8 %13, ptr align 8 %14, i64 144, i1 false), !tbaa.struct !67
  %15 = load i32, ptr %6, align 4, !tbaa !26
  call void @llvm.lifetime.end.p0(i64 4, ptr %6) #7
  call void @llvm.lifetime.end.p0(i64 152, ptr %5) #7
  ret i32 %15
}