; Function Attrs: nounwind uwtable
define dso_local i32 @reftable_iterator_next_log(ptr noundef readonly captures(none) %0, ptr noundef captures(none) %1) local_unnamed_addr #0 {
  %3 = alloca %struct.reftable_record, align 8
  call void @llvm.lifetime.start.p0(i64 152, ptr nonnull %3) #10
  store i8 103, ptr %3, align 8, !tbaa !37
  %4 = getelementptr inbounds nuw i8, ptr %3, i64 1
  call void @llvm.memset.p0.i64(ptr noundef nonnull align 1 dereferenceable(7) %4, i8 0, i64 7, i1 false)
  %5 = getelementptr inbounds nuw i8, ptr %3, i64 8
  call void @llvm.memcpy.p0.p0.i64(ptr noundef nonnull align 8 dereferenceable(144) %5, ptr noundef nonnull align 8 dereferenceable(144) %1, i64 144, i1 false), !tbaa.struct !48
  %6 = load ptr, ptr %0, align 8, !tbaa !4
  %7 = getelementptr inbounds nuw i8, ptr %6, i64 8
  %8 = load ptr, ptr %7, align 8, !tbaa !13
  %9 = getelementptr inbounds nuw i8, ptr %0, i64 8
  %10 = load ptr, ptr %9, align 8, !tbaa !12
  %11 = call i32 %8(ptr noundef %10, ptr noundef nonnull %3) #10
  call void @llvm.memcpy.p0.p0.i64(ptr noundef nonnull align 8 dereferenceable(144) %1, ptr noundef nonnull align 8 dereferenceable(144) %5, i64 144, i1 false), !tbaa.struct !48
  call void @llvm.lifetime.end.p0(i64 152, ptr nonnull %3) #10
  ret i32 %11
}